; ModuleID = '14/1204.c'
source_filename = "14/1204.c"
target datalayout = "e-m:e-p270:32:32-p271:32:32-p272:64:64-i64:64-f80:128-n8:16:32:64-S128"
target triple = "x86_64-pc-linux-gnu"

%struct.student = type { i32, i32, i32, i32 }

@.str = private unnamed_addr constant [3 x i8] c"%d\00", align 1
@.str.1 = private unnamed_addr constant [9 x i8] c"%d %d %d\00", align 1
@.str.2 = private unnamed_addr constant [7 x i8] c"%d %d\0A\00", align 1

; Function Attrs: noinline nounwind uwtable
define dso_local i32 @main() #0 {
  %1 = alloca i32, align 4
  %2 = alloca i32, align 4
  %3 = alloca i32, align 4
  %4 = alloca i32, align 4
  %5 = alloca i32, align 4
  %6 = alloca [100001 x %struct.student], align 16
  store i32 0, i32* %1, align 4
  %7 = call i32 (i8*, ...) @__isoc99_scanf(i8* getelementptr inbounds ([3 x i8], [3 x i8]* @.str, i64 0, i64 0), i32* %2)
  store i32 0, i32* %3, align 4
  br label %8

8:                                                ; preds = %41, %0
  %9 = load i32, i32* %3, align 4
  %10 = load i32, i32* %2, align 4
  %11 = icmp slt i32 %9, %10
  br i1 %11, label %12, label %44

12:                                               ; preds = %8
  %13 = load i32, i32* %3, align 4
  %14 = sext i32 %13 to i64
  %15 = getelementptr inbounds [100001 x %struct.student], [100001 x %struct.student]* %6, i64 0, i64 %14
  %16 = getelementptr inbounds %struct.student, %struct.student* %15, i32 0, i32 0
  %17 = load i32, i32* %3, align 4
  %18 = sext i32 %17 to i64
  %19 = getelementptr inbounds [100001 x %struct.student], [100001 x %struct.student]* %6, i64 0, i64 %18
  %20 = getelementptr inbounds %struct.student, %struct.student* %19, i32 0, i32 1
  %21 = load i32, i32* %3, align 4
  %22 = sext i32 %21 to i64
  %23 = getelementptr inbounds [100001 x %struct.student], [100001 x %struct.student]* %6, i64 0, i64 %22
  %24 = getelementptr inbounds %struct.student, %struct.student* %23, i32 0, i32 2
  %25 = call i32 (i8*, ...) @__isoc99_scanf(i8* getelementptr inbounds ([9 x i8], [9 x i8]* @.str.1, i64 0, i64 0), i32* %16, i32* %20, i32* %24)
  %26 = load i32, i32* %3, align 4
  %27 = sext i32 %26 to i64
  %28 = getelementptr inbounds [100001 x %struct.student], [100001 x %struct.student]* %6, i64 0, i64 %27
  %29 = getelementptr inbounds %struct.student, %struct.student* %28, i32 0, i32 1
  %30 = load i32, i32* %29, align 4
  %31 = load i32, i32* %3, align 4
  %32 = sext i32 %31 to i64
  %33 = getelementptr inbounds [100001 x %struct.student], [100001 x %struct.student]* %6, i64 0, i64 %32
  %34 = getelementptr inbounds %struct.student, %struct.student* %33, i32 0, i32 2
  %35 = load i32, i32* %34, align 8
  %36 = add nsw i32 %30, %35
  %37 = load i32, i32* %3, align 4
  %38 = sext i32 %37 to i64
  %39 = getelementptr inbounds [100001 x %struct.student], [100001 x %struct.student]* %6, i64 0, i64 %38
  %40 = getelementptr inbounds %struct.student, %struct.student* %39, i32 0, i32 3
  store i32 %36, i32* %40, align 4
  br label %41

41:                                               ; preds = %12
  %42 = load i32, i32* %3, align 4
  %43 = add nsw i32 %42, 1
  store i32 %43, i32* %3, align 4
  br label %8

44:                                               ; preds = %8
  store i32 1, i32* %3, align 4
  br label %45

45:                                               ; preds = %96, %44
  %46 = load i32, i32* %3, align 4
  %47 = icmp slt i32 %46, 4
  br i1 %47, label %48, label %99

48:                                               ; preds = %45
  store i32 0, i32* %5, align 4
  br label %49

49:                                               ; preds = %92, %48
  %50 = load i32, i32* %5, align 4
  %51 = load i32, i32* %2, align 4
  %52 = load i32, i32* %3, align 4
  %53 = sub nsw i32 %51, %52
  %54 = icmp slt i32 %50, %53
  br i1 %54, label %55, label %95

55:                                               ; preds = %49
  %56 = load i32, i32* %5, align 4
  %57 = sext i32 %56 to i64
  %58 = getelementptr inbounds [100001 x %struct.student], [100001 x %struct.student]* %6, i64 0, i64 %57
  %59 = getelementptr inbounds %struct.student, %struct.student* %58, i32 0, i32 3
  %60 = load i32, i32* %59, align 4
  %61 = load i32, i32* %5, align 4
  %62 = add nsw i32 %61, 1
  %63 = sext i32 %62 to i64
  %64 = getelementptr inbounds [100001 x %struct.student], [100001 x %struct.student]* %6, i64 0, i64 %63
  %65 = getelementptr inbounds %struct.student, %struct.student* %64, i32 0, i32 3
  %66 = load i32, i32* %65, align 4
  %67 = icmp sge i32 %60, %66
  br i1 %67, label %68, label %91

68:                                               ; preds = %55
  %69 = getelementptr inbounds [100001 x %struct.student], [100001 x %struct.student]* %6, i64 0, i64 100000
  %70 = load i32, i32* %5, align 4
  %71 = add nsw i32 %70, 1
  %72 = sext i32 %71 to i64
  %73 = getelementptr inbounds [100001 x %struct.student], [100001 x %struct.student]* %6, i64 0, i64 %72
  %74 = bitcast %struct.student* %69 to i8*
  %75 = bitcast %struct.student* %73 to i8*
  call void @llvm.memcpy.p0i8.p0i8.i64(i8* align 16 %74, i8* align 16 %75, i64 16, i1 false)
  %76 = load i32, i32* %5, align 4
  %77 = add nsw i32 %76, 1
  %78 = sext i32 %77 to i64
  %79 = getelementptr inbounds [100001 x %struct.student], [100001 x %struct.student]* %6, i64 0, i64 %78
  %80 = load i32, i32* %5, align 4
  %81 = sext i32 %80 to i64
  %82 = getelementptr inbounds [100001 x %struct.student], [100001 x %struct.student]* %6, i64 0, i64 %81
  %83 = bitcast %struct.student* %79 to i8*
  %84 = bitcast %struct.student* %82 to i8*
  call void @llvm.memcpy.p0i8.p0i8.i64(i8* align 16 %83, i8* align 16 %84, i64 16, i1 false)
  %85 = load i32, i32* %5, align 4
  %86 = sext i32 %85 to i64
  %87 = getelementptr inbounds [100001 x %struct.student], [100001 x %struct.student]* %6, i64 0, i64 %86
  %88 = getelementptr inbounds [100001 x %struct.student], [100001 x %struct.student]* %6, i64 0, i64 100000
  %89 = bitcast %struct.student* %87 to i8*
  %90 = bitcast %struct.student* %88 to i8*
  call void @llvm.memcpy.p0i8.p0i8.i64(i8* align 16 %89, i8* align 16 %90, i64 16, i1 false)
  br label %91

91:                                               ; preds = %68, %55
  br label %92

92:                                               ; preds = %91
  %93 = load i32, i32* %5, align 4
  %94 = add nsw i32 %93, 1
  store i32 %94, i32* %5, align 4
  br label %49

95:                                               ; preds = %49
  br label %96

96:                                               ; preds = %95
  %97 = load i32, i32* %3, align 4
  %98 = add nsw i32 %97, 1
  store i32 %98, i32* %3, align 4
  br label %45

99:                                               ; preds = %45
  %100 = load i32, i32* %2, align 4
  %101 = sub nsw i32 %100, 1
  store i32 %101, i32* %3, align 4
  br label %102

102:                                              ; preds = %119, %99
  %103 = load i32, i32* %3, align 4
  %104 = load i32, i32* %2, align 4
  %105 = sub nsw i32 %104, 4
  %106 = icmp sgt i32 %103, %105
  br i1 %106, label %107, label %122

107:                                              ; preds = %102
  %108 = load i32, i32* %3, align 4
  %109 = sext i32 %108 to i64
  %110 = getelementptr inbounds [100001 x %struct.student], [100001 x %struct.student]* %6, i64 0, i64 %109
  %111 = getelementptr inbounds %struct.student, %struct.student* %110, i32 0, i32 0
  %112 = load i32, i32* %111, align 16
  %113 = load i32, i32* %3, align 4
  %114 = sext i32 %113 to i64
  %115 = getelementptr inbounds [100001 x %struct.student], [100001 x %struct.student]* %6, i64 0, i64 %114
  %116 = getelementptr inbounds %struct.student, %struct.student* %115, i32 0, i32 3
  %117 = load i32, i32* %116, align 4
  %118 = call i32 (i8*, ...) @printf(i8* getelementptr inbounds ([7 x i8], [7 x i8]* @.str.2, i64 0, i64 0), i32 %112, i32 %117)
  br label %119

119:                                              ; preds = %107
  %120 = load i32, i32* %3, align 4
  %121 = add nsw i32 %120, -1
  store i32 %121, i32* %3, align 4
  br label %102

122:                                              ; preds = %102
  ret i32 0
}

declare dso_local i32 @__isoc99_scanf(i8*, ...) #1

; Function Attrs: argmemonly nounwind willreturn
declare void @llvm.memcpy.p0i8.p0i8.i64(i8* noalias nocapture writeonly, i8* noalias nocapture readonly, i64, i1 immarg) #2

declare dso_local i32 @printf(i8*, ...) #1


!llvm.module.flags = !{!0}
!llvm.ident = !{!1}

!0 = !{i32 1, !"wchar_size", i32 4}
!1 = !{!"clang version 10.0.0-4ubuntu1 "}
